; ModuleID = '40/1937.c'
source_filename = "40/1937.c"
target datalayout = "e-m:e-p270:32:32-p271:32:32-p272:64:64-i64:64-f80:128-n8:16:32:64-S128"
target triple = "x86_64-pc-linux-gnu"

@.str = private unnamed_addr constant [4 x i8] c"%lf\00", align 1
@.str.1 = private unnamed_addr constant [15 x i8] c"Invalid input\0A\00", align 1
@.str.2 = private unnamed_addr constant [7 x i8] c"%.4lf\0A\00", align 1

; Function Attrs: noinline nounwind uwtable
define dso_local i32 @main() #0 {
  %1 = alloca i32, align 4
  %2 = alloca double, align 8
  %3 = alloca double, align 8
  %4 = alloca double, align 8
  %5 = alloca double, align 8
  %6 = alloca double, align 8
  %7 = alloca double, align 8
  store i32 0, i32* %1, align 4
  %8 = call i32 (i8*, ...) @__isoc99_scanf(i8* getelementptr inbounds ([4 x i8], [4 x i8]* @.str, i64 0, i64 0), double* %3)
  %9 = call i32 (i8*, ...) @__isoc99_scanf(i8* getelementptr inbounds ([4 x i8], [4 x i8]* @.str, i64 0, i64 0), double* %4)
  %10 = call i32 (i8*, ...) @__isoc99_scanf(i8* getelementptr inbounds ([4 x i8], [4 x i8]* @.str, i64 0, i64 0), double* %5)
  %11 = call i32 (i8*, ...) @__isoc99_scanf(i8* getelementptr inbounds ([4 x i8], [4 x i8]* @.str, i64 0, i64 0), double* %6)
  %12 = call i32 (i8*, ...) @__isoc99_scanf(i8* getelementptr inbounds ([4 x i8], [4 x i8]* @.str, i64 0, i64 0), double* %7)
  %13 = load double, double* %3, align 8
  %14 = load double, double* %4, align 8
  %15 = fadd double %13, %14
  %16 = load double, double* %5, align 8
  %17 = fadd double %15, %16
  %18 = load double, double* %6, align 8
  %19 = fadd double %17, %18
  %20 = fdiv double %19, 2.000000e+00
  store double %20, double* %2, align 8
  %21 = load double, double* %7, align 8
  %22 = fmul double %21, 0x400921FB4D12D84A
  %23 = fdiv double %22, 1.800000e+02
  store double %23, double* %7, align 8
  %24 = load double, double* %7, align 8
  %25 = fdiv double %24, 2.000000e+00
  store double %25, double* %7, align 8
  %26 = load double, double* %2, align 8
  %27 = load double, double* %3, align 8
  %28 = fsub double %26, %27
  %29 = load double, double* %2, align 8
  %30 = load double, double* %4, align 8
  %31 = fsub double %29, %30
  %32 = fmul double %28, %31
  %33 = load double, double* %2, align 8
  %34 = load double, double* %5, align 8
  %35 = fsub double %33, %34
  %36 = fmul double %32, %35
  %37 = load double, double* %2, align 8
  %38 = load double, double* %6, align 8
  %39 = fsub double %37, %38
  %40 = fmul double %36, %39
  %41 = load double, double* %3, align 8
  %42 = load double, double* %4, align 8
  %43 = fmul double %41, %42
  %44 = load double, double* %5, align 8
  %45 = fmul double %43, %44
  %46 = load double, double* %6, align 8
  %47 = fmul double %45, %46
  %48 = load double, double* %7, align 8
  %49 = call double @cos(double %48) #3
  %50 = fmul double %47, %49
  %51 = load double, double* %7, align 8
  %52 = call double @cos(double %51) #3
  %53 = fmul double %50, %52
  %54 = fcmp olt double %40, %53
  br i1 %54, label %55, label %57

55:                                               ; preds = %0
  %56 = call i32 (i8*, ...) @printf(i8* getelementptr inbounds ([15 x i8], [15 x i8]* @.str.1, i64 0, i64 0))
  br label %89

57:                                               ; preds = %0
  %58 = load double, double* %2, align 8
  %59 = load double, double* %3, align 8
  %60 = fsub double %58, %59
  %61 = load double, double* %2, align 8
  %62 = load double, double* %4, align 8
  %63 = fsub double %61, %62
  %64 = fmul double %60, %63
  %65 = load double, double* %2, align 8
  %66 = load double, double* %5, align 8
  %67 = fsub double %65, %66
  %68 = fmul double %64, %67
  %69 = load double, double* %2, align 8
  %70 = load double, double* %6, align 8
  %71 = fsub double %69, %70
  %72 = fmul double %68, %71
  %73 = load double, double* %3, align 8
  %74 = load double, double* %4, align 8
  %75 = fmul double %73, %74
  %76 = load double, double* %5, align 8
  %77 = fmul double %75, %76
  %78 = load double, double* %6, align 8
  %79 = fmul double %77, %78
  %80 = load double, double* %7, align 8
  %81 = call double @cos(double %80) #3
  %82 = fmul double %79, %81
  %83 = load double, double* %7, align 8
  %84 = call double @cos(double %83) #3
  %85 = fmul double %82, %84
  %86 = fsub double %72, %85
  %87 = call double @sqrt(double %86) #3
  %88 = call i32 (i8*, ...) @printf(i8* getelementptr inbounds ([7 x i8], [7 x i8]* @.str.2, i64 0, i64 0), double %87)
  br label %89

89:                                               ; preds = %57, %55
  %90 = load i32, i32* %1, align 4
  ret i32 %90
}

declare dso_local i32 @__isoc99_scanf(i8*, ...) #1

; Function Attrs: nounwind
declare dso_local double @cos(double) #2

declare dso_local i32 @printf(i8*, ...) #1

; Function Attrs: nounwind
declare dso_local double @sqrt(double) #2


!llvm.module.flags = !{!0}
!llvm.ident = !{!1}

!0 = !{i32 1, !"wchar_size", i32 4}
!1 = !{!"clang version 10.0.0-4ubuntu1 "}
